target datalayout = "e-m:e-p270:32:32-p271:32:32-p272:64:64-i64:64-i128:128-f80:128-n8:16:32:64-S128"
target triple = "x86_64-pc-linux-gnu"

%"class.std::__cxx11::basic_string" = type { %"struct.std::__cxx11::basic_string<char>::_Alloc_hider", i64, %union.anon }
%"struct.std::__cxx11::basic_string<char>::_Alloc_hider" = type { ptr }
%union.anon = type { i64, [8 x i8] }

@_Z4progB5cxx11 = dso_local global %"class.std::__cxx11::basic_string" zeroinitializer, align 8
@stderr = external global ptr, align 8
@.str.2 = private unnamed_addr constant [16 x i8] c"%s: deleted %s\0A\00", align 1
@.str.3 = private unnamed_addr constant [12 x i8] c"std::remove\00", align 1

; Function Attrs: noinline noreturn nounwind uwtable
define linkonce_odr hidden void @__clang_call_terminate(ptr noundef %0) #11 comdat {
  %2 = call ptr @__cxa_begin_catch(ptr %0) #3
  call void @_ZSt9terminatev() #17
  unreachable
}

; Function Attrs: mustprogress nounwind uwtable
define available_externally noundef ptr @_ZNKSt7__cxx1112basic_stringIcSt11char_traitsIcESaIcEE7_M_dataEv(ptr noundef nonnull align 8 dereferenceable(32) %0) #4 align 2 {
  %2 = alloca ptr, align 8
  store ptr %0, ptr %2, align 8, !tbaa !4
  %3 = load ptr, ptr %2, align 8
  %4 = getelementptr inbounds nuw %"class.std::__cxx11::basic_string", ptr %3, i32 0, i32 0
  %5 = getelementptr inbounds nuw %"struct.std::__cxx11::basic_string<char>::_Alloc_hider", ptr %4, i32 0, i32 0
  %6 = load ptr, ptr %5, align 8, !tbaa !55
  ret ptr %6
}

; Function Attrs: mustprogress nounwind uwtable
define available_externally noundef ptr @_ZNKSt7__cxx1112basic_stringIcSt11char_traitsIcESaIcEE5c_strEv(ptr noundef nonnull align 8 dereferenceable(32) %0) #4 align 2 personality ptr @__gxx_personality_v0 {
  %2 = alloca ptr, align 8
  store ptr %0, ptr %2, align 8, !tbaa !4
  %3 = load ptr, ptr %2, align 8
  %4 = invoke noundef ptr @_ZNKSt7__cxx1112basic_stringIcSt11char_traitsIcESaIcEE7_M_dataEv(ptr noundef nonnull align 8 dereferenceable(32) %3)
          to label %5 unwind label %6

5:                                                ; preds = %1
  ret ptr %4

6:                                                ; preds = %1
  %7 = landingpad { ptr, i32 }
          catch ptr null
  %8 = extractvalue { ptr, i32 } %7, 0
  call void @__clang_call_terminate(ptr %8) #17
  unreachable
}

; Function Attrs: mustprogress uwtable
define dso_local noundef i32 @_Z7cleanupRKNSt7__cxx1112basic_stringIcSt11char_traitsIcESaIcEEE(ptr noundef nonnull align 8 dereferenceable(32) %0) #5 {
  %2 = alloca i32, align 4
  %3 = alloca ptr, align 8
  %4 = alloca ptr, align 8
  %5 = alloca i32, align 4
  %6 = alloca i32, align 4
  store ptr %0, ptr %3, align 8, !tbaa !4
  call void @llvm.lifetime.start.p0(i64 8, ptr %4) #3
  %7 = load ptr, ptr %3, align 8, !tbaa !4
  %8 = call noundef ptr @_ZNKSt7__cxx1112basic_stringIcSt11char_traitsIcESaIcEE5c_strEv(ptr noundef nonnull align 8 dereferenceable(32) %7) #3
  store ptr %8, ptr %4, align 8, !tbaa !11
  %9 = load ptr, ptr %4, align 8, !tbaa !11
  %10 = icmp ne ptr %9, null
  br i1 %10, label %11, label %32

11:                                               ; preds = %1
  %12 = load ptr, ptr %4, align 8, !tbaa !11
  %13 = load i8, ptr %12, align 1, !tbaa !13
  %14 = icmp ne i8 %13, 0
  br i1 %14, label %15, label %32

15:                                               ; preds = %11
  call void @llvm.lifetime.start.p0(i64 4, ptr %5) #3
  %16 = load ptr, ptr %4, align 8, !tbaa !11
  %17 = call i32 @remove(ptr noundef %16) #3
  store i32 %17, ptr %5, align 4, !tbaa !14
  %18 = load i32, ptr %5, align 4, !tbaa !14
  %19 = icmp eq i32 %18, 0
  br i1 %19, label %20, label %25

20:                                               ; preds = %15
  %21 = load ptr, ptr @stderr, align 8, !tbaa !9
  %22 = call noundef ptr @_ZNKSt7__cxx1112basic_stringIcSt11char_traitsIcESaIcEE5c_strEv(ptr noundef nonnull align 8 dereferenceable(32) @_Z4progB5cxx11) #3
  %23 = load ptr, ptr %4, align 8, !tbaa !11
  %24 = call i32 (ptr, ptr, ...) @fprintf(ptr noundef %21, ptr noundef @.str.2, ptr noundef %22, ptr noundef %23) #3
  store i32 0, ptr %2, align 4
  store i32 1, ptr %6, align 4
  br label %31

25:                                               ; preds = %15
  %26 = call ptr @__errno_location() #18
  %27 = load i32, ptr %26, align 4, !tbaa !14
  %28 = icmp eq i32 %27, 2
  br i1 %28, label %29, label %30

29:                                               ; preds = %25
  store i32 0, ptr %2, align 4
  store i32 1, ptr %6, align 4
  br label %31

30:                                               ; preds = %25
  call void @perror(ptr noundef @.str.3)
  store i32 1, ptr %2, align 4
  store i32 1, ptr %6, align 4
  br label %31

31:                                               ; preds = %30, %29, %20
  call void @llvm.lifetime.end.p0(i64 4, ptr %5) #3
  br label %33

32:                                               ; preds = %11, %1
  store i32 0, ptr %2, align 4
  store i32 1, ptr %6, align 4
  br label %33

33:                                               ; preds = %32, %31
  call void @llvm.lifetime.end.p0(i64 8, ptr %4) #3
  %34 = load i32, ptr %2, align 4
  ret i32 %34
}