; Function Attrs: mustprogress nofree nounwind uwtable
define dso_local noundef range(i32 0, 2) i32 @_Z7cleanupRKNSt7__cxx1112basic_stringIcSt11char_traitsIcESaIcEEE(ptr noundef nonnull readonly align 8 captures(none) dereferenceable(32) %0) local_unnamed_addr #6 personality ptr @__gxx_personality_v0 {
  %2 = load ptr, ptr %0, align 8, !tbaa !9
  %.not = icmp eq ptr %2, null
  br i1 %.not, label %17, label %3

3:                                                ; preds = %1
  %4 = load i8, ptr %2, align 1, !tbaa !14
  %.not7 = icmp eq i8 %4, 0
  br i1 %.not7, label %17, label %5

5:                                                ; preds = %3
  %6 = tail call i32 @remove(ptr noundef nonnull %2) #21
  %7 = icmp eq i32 %6, 0
  br i1 %7, label %8, label %12

8:                                                ; preds = %5
  %9 = load ptr, ptr @stderr, align 8, !tbaa !4
  %10 = load ptr, ptr @_Z4progB5cxx11, align 8, !tbaa !9
  %11 = tail call i32 (ptr, ptr, ...) @fprintf(ptr noundef %9, ptr noundef nonnull @.str.2, ptr noundef %10, ptr noundef nonnull %2) #20
  br label %17

12:                                               ; preds = %5
  %13 = tail call ptr @__errno_location() #22
  %14 = load i32, ptr %13, align 4, !tbaa !15
  %15 = icmp eq i32 %14, 2
  br i1 %15, label %17, label %16

16:                                               ; preds = %12
  tail call void @perror(ptr noundef nonnull @.str.3) #23
  br label %17

17:                                               ; preds = %1, %3, %8, %16, %12
  %.1 = phi i32 [ 0, %8 ], [ 1, %16 ], [ 0, %12 ], [ 0, %3 ], [ 0, %1 ]
  ret i32 %.1
}